(ikeras_frcnn.config
Config
p0
(dp1
S'use_vertical_flips'
p2
I00
sS'verbose'
p3
I01
sS'classifier_regr_std'
p4
(lp5
F8.0
aF8.0
aF4.0
aF4.0
asS'classifier_min_overlap'
p6
F0.1
sS'rot_90'
p7
I00
sS'c_map'
p8
(dp9
S'sheep'
p10
I7
sS'horse'
p11
I19
sS'bg'
p12
I20
sS'bicycle'
p13
I16
sS'aeroplane'
p14
I13
sS'cow'
p15
I18
sS'sofa'
p16
I15
sS'car'
p17
I2
sS'dog'
p18
I5
sS'cat'
p19
I1
sS'person'
p20
I3
sS'train'
p21
I10
sS'diningtable'
p22
I12
sS'bottle'
p23
I0
sS'bus'
p24
I8
sS'pottedplant'
p25
I4
sS'tvmonitor'
p26
I14
sS'chair'
p27
I6
sS'bird'
p28
I11
sS'boat'
p29
I9
sS'motorbike'
p30
I17
ssS'class_mapping'
p31
NsS'use_horizontal_flips'
p32
I00
sS'rpn_max_overlap'
p33
F0.7
sS'network'
p34
S'resnet50'
p35
sS'img_channel_mean'
p36
(lp37
F103.939
aF116.779
aF123.68
asS'balanced_classes'
p38
I00
sS'anchor_box_ratios'
p39
(lp40
(lp41
I1
aI1
aa(lp42
F0.7071067811865475
aF1.414213562373095
aa(lp43
F1.414213562373095
aF0.7071067811865475
aasS'img_scaling_factor'
p44
F1.0
sS'rpn_stride'
p45
I16
sS'num_rois'
p46
I32
sS'base_net_weights'
p47
S'resnet50_weights_tf_dim_ordering_tf_kernels.h5'
p48
sS'anchor_box_scales'
p49
(lp50
I128
aI256
aI512
asS'rpn_min_overlap'
p51
F0.3
sS'model_path'
p52
S'./model_frcnn.hdf5'
p53
sS'classifier_max_overlap'
p54
F0.5
sS'std_scaling'
p55
F4.0
sS'im_size'
p56
I600
sb.